; Function Attrs: mustprogress nofree norecurse nosync nounwind willreturn memory(readwrite, argmem: none, inaccessiblemem: none) uwtable
define dso_local noundef i32 @_Z23btGetCurrentThreadIndexv() local_unnamed_addr #1 {
  %1 = load i32, ptr @_ZZ23btGetCurrentThreadIndexvE12sThreadIndex, align 4, !tbaa !4
  %2 = icmp eq i32 %1, -1
  br i1 %2, label %3, label %7

3:                                                ; preds = %0
  %4 = load i32, ptr @_ZL14gThreadCounter.0, align 4, !tbaa !8
  %5 = add i32 %4, 1
  %6 = icmp ugt i32 %5, 63
  %spec.select.i = select i1 %6, i32 1, i32 %5
  store i32 %spec.select.i, ptr @_ZL14gThreadCounter.0, align 4, !tbaa !8
  store i32 %spec.select.i, ptr @_ZZ23btGetCurrentThreadIndexvE12sThreadIndex, align 4, !tbaa !4
  br label %7

7:                                                ; preds = %3, %0
  %8 = phi i32 [ %spec.select.i, %3 ], [ %1, %0 ]
  ret i32 %8
}